; Function Attrs: nounwind uwtable
define internal ptr @range_item(ptr noundef readonly captures(none) %0, i64 noundef %1) #0 {
  %3 = tail call ptr @PyLong_FromSsize_t(i64 noundef %1) #6
  %.not = icmp eq ptr %3, null
  br i1 %.not, label %Py_DECREF.exit, label %4

4:                                                ; preds = %2
  %5 = tail call fastcc ptr @compute_range_item(ptr noundef %0, ptr noundef %3)
  %6 = load i32, ptr %3, align 8, !tbaa !12
  %.not.i = icmp sgt i32 %6, -1
  br i1 %.not.i, label %7, label %Py_DECREF.exit

7:                                                ; preds = %4
  %8 = add nsw i32 %6, -1
  store i32 %8, ptr %3, align 8, !tbaa !12
  %9 = icmp eq i32 %8, 0
  br i1 %9, label %10, label %Py_DECREF.exit

10:                                               ; preds = %7
  tail call void @_Py_Dealloc(ptr noundef nonnull %3) #6
  br label %Py_DECREF.exit

Py_DECREF.exit:                                   ; preds = %10, %7, %4, %2
  %.0 = phi ptr [ null, %2 ], [ %5, %4 ], [ %5, %7 ], [ %5, %10 ]
  ret ptr %.0
}